target datalayout = "e-m:e-p270:32:32-p271:32:32-p272:64:64-i64:64-i128:128-f80:128-n8:16:32:64-S128"
target triple = "x86_64-pc-linux-gnu"

%"class.std::linear_congruential_engine" = type { i64 }

@rndEngine = global %"class.std::linear_congruential_engine" zeroinitializer, align 8

; Function Attrs: mustprogress nounwind uwtable
define linkonce_odr noundef i64 @_ZNSt8__detail4_ModImLm2147483647ELm16807ELm0ELb1ELb1EE6__calcEm(i64 noundef %0) #4 comdat align 2 {
  %2 = alloca i64, align 8
  %3 = alloca i64, align 8
  store i64 %0, ptr %2, align 8
  %4 = load i64, ptr %2, align 8
  %5 = mul i64 16807, %4
  %6 = add i64 %5, 0
  store i64 %6, ptr %3, align 8
  %7 = load i64, ptr %3, align 8
  %8 = urem i64 %7, 2147483647
  store i64 %8, ptr %3, align 8
  %9 = load i64, ptr %3, align 8
  ret i64 %9
}

; Function Attrs: mustprogress uwtable
define linkonce_odr noundef i64 @_ZNSt8__detail5__modImTnT_Lm2147483647ETnS1_Lm16807ETnS1_Lm0EEES1_S1_(i64 noundef %0) #5 comdat {
  %2 = alloca i64, align 8
  %3 = alloca i64, align 8
  store i64 %0, ptr %2, align 8
  store i64 16807, ptr %3, align 8
  %4 = load i64, ptr %2, align 8
  %5 = call noundef i64 @_ZNSt8__detail4_ModImLm2147483647ELm16807ELm0ELb1ELb1EE6__calcEm(i64 noundef %4)
  ret i64 %5
}

; Function Attrs: mustprogress uwtable
define linkonce_odr noundef i64 @_ZNSt26linear_congruential_engineImLm16807ELm0ELm2147483647EEclEv(ptr noundef nonnull align 8 dereferenceable(8) %0) #5 comdat align 2 {
  %2 = alloca ptr, align 8
  store ptr %0, ptr %2, align 8
  %3 = load ptr, ptr %2, align 8
  %4 = getelementptr inbounds %"class.std::linear_congruential_engine", ptr %3, i32 0, i32 0
  %5 = load i64, ptr %4, align 8
  %6 = call noundef i64 @_ZNSt8__detail5__modImTnT_Lm2147483647ETnS1_Lm16807ETnS1_Lm0EEES1_S1_(i64 noundef %5)
  %7 = getelementptr inbounds %"class.std::linear_congruential_engine", ptr %3, i32 0, i32 0
  store i64 %6, ptr %7, align 8
  %8 = getelementptr inbounds %"class.std::linear_congruential_engine", ptr %3, i32 0, i32 0
  %9 = load i64, ptr %8, align 8
  ret i64 %9
}

; Function Attrs: mustprogress nounwind uwtable
define linkonce_odr noundef nonnull align 8 dereferenceable(8) ptr @_ZSt3maxImERKT_S2_S2_(ptr noundef nonnull align 8 dereferenceable(8) %0, ptr noundef nonnull align 8 dereferenceable(8) %1) #4 comdat {
  %3 = alloca ptr, align 8
  %4 = alloca ptr, align 8
  %5 = alloca ptr, align 8
  store ptr %0, ptr %4, align 8
  store ptr %1, ptr %5, align 8
  %6 = load ptr, ptr %4, align 8
  %7 = load i64, ptr %6, align 8
  %8 = load ptr, ptr %5, align 8
  %9 = load i64, ptr %8, align 8
  %10 = icmp ult i64 %7, %9
  br i1 %10, label %11, label %13

11:                                               ; preds = %2
  %12 = load ptr, ptr %5, align 8
  store ptr %12, ptr %3, align 8
  br label %15

13:                                               ; preds = %2
  %14 = load ptr, ptr %4, align 8
  store ptr %14, ptr %3, align 8
  br label %15

15:                                               ; preds = %13, %11
  %16 = load ptr, ptr %3, align 8
  ret ptr %16
}

; Function Attrs: mustprogress nounwind uwtable
define linkonce_odr noundef x86_fp80 @_ZSt3loge(x86_fp80 noundef %0) #4 comdat {
  %2 = alloca x86_fp80, align 16
  store x86_fp80 %0, ptr %2, align 16
  %3 = load x86_fp80, ptr %2, align 16
  %4 = call x86_fp80 @logl(x86_fp80 noundef %3) #3
  ret x86_fp80 %4
}

; Function Attrs: mustprogress nounwind uwtable
define linkonce_odr noundef i64 @_ZNSt26linear_congruential_engineImLm16807ELm0ELm2147483647EE3minEv() #4 comdat align 2 {
  ret i64 1
}

; Function Attrs: mustprogress nounwind uwtable
define linkonce_odr noundef i64 @_ZNSt26linear_congruential_engineImLm16807ELm0ELm2147483647EE3maxEv() #4 comdat align 2 {
  ret i64 2147483646
}

; Function Attrs: mustprogress uwtable
define linkonce_odr noundef double @_ZSt18generate_canonicalIdLm24ESt26linear_congruential_engineImLm16807ELm0ELm2147483647EEET_RT1_(ptr noundef nonnull align 8 dereferenceable(8) %0) #5 comdat {
  %2 = alloca ptr, align 8
  %3 = alloca i64, align 8
  %4 = alloca x86_fp80, align 16
  %5 = alloca i64, align 8
  %6 = alloca i64, align 8
  %7 = alloca i64, align 8
  %8 = alloca i64, align 8
  %9 = alloca double, align 8
  %10 = alloca double, align 8
  %11 = alloca double, align 8
  %12 = alloca i64, align 8
  store ptr %0, ptr %2, align 8
  store i64 24, ptr %3, align 8
  %13 = call noundef i64 @_ZNSt26linear_congruential_engineImLm16807ELm0ELm2147483647EE3maxEv()
  %14 = uitofp i64 %13 to x86_fp80
  %15 = call noundef i64 @_ZNSt26linear_congruential_engineImLm16807ELm0ELm2147483647EE3minEv()
  %16 = uitofp i64 %15 to x86_fp80
  %17 = fsub x86_fp80 %14, %16
  %18 = fadd x86_fp80 %17, 0xK3FFF8000000000000000
  store x86_fp80 %18, ptr %4, align 16
  %19 = load x86_fp80, ptr %4, align 16
  %20 = call noundef x86_fp80 @_ZSt3loge(x86_fp80 noundef %19)
  %21 = call noundef x86_fp80 @_ZSt3loge(x86_fp80 noundef 0xK40008000000000000000)
  %22 = fdiv x86_fp80 %20, %21
  %23 = fptoui x86_fp80 %22 to i64
  store i64 %23, ptr %5, align 8
  store i64 1, ptr %7, align 8
  %24 = load i64, ptr %5, align 8
  %25 = add i64 24, %24
  %26 = sub i64 %25, 1
  %27 = load i64, ptr %5, align 8
  %28 = udiv i64 %26, %27
  store i64 %28, ptr %8, align 8
  %29 = call noundef nonnull align 8 dereferenceable(8) ptr @_ZSt3maxImERKT_S2_S2_(ptr noundef nonnull align 8 dereferenceable(8) %7, ptr noundef nonnull align 8 dereferenceable(8) %8)
  %30 = load i64, ptr %29, align 8
  store i64 %30, ptr %6, align 8
  store double 0.000000e+00, ptr %10, align 8
  store double 1.000000e+00, ptr %11, align 8
  %31 = load i64, ptr %6, align 8
  store i64 %31, ptr %12, align 8
  br label %32

32:                                               ; preds = %49, %1
  %33 = load i64, ptr %12, align 8
  %34 = icmp ne i64 %33, 0
  br i1 %34, label %35, label %52

35:                                               ; preds = %32
  %36 = load ptr, ptr %2, align 8
  %37 = call noundef i64 @_ZNSt26linear_congruential_engineImLm16807ELm0ELm2147483647EEclEv(ptr noundef nonnull align 8 dereferenceable(8) %36)
  %38 = call noundef i64 @_ZNSt26linear_congruential_engineImLm16807ELm0ELm2147483647EE3minEv()
  %39 = sub i64 %37, %38
  %40 = uitofp i64 %39 to double
  %41 = load double, ptr %11, align 8
  %42 = load double, ptr %10, align 8
  %43 = call double @llvm.fmuladd.f64(double %40, double %41, double %42)
  store double %43, ptr %10, align 8
  %44 = load x86_fp80, ptr %4, align 16
  %45 = load double, ptr %11, align 8
  %46 = fpext double %45 to x86_fp80
  %47 = fmul x86_fp80 %46, %44
  %48 = fptrunc x86_fp80 %47 to double
  store double %48, ptr %11, align 8
  br label %49

49:                                               ; preds = %35
  %50 = load i64, ptr %12, align 8
  %51 = add i64 %50, -1
  store i64 %51, ptr %12, align 8
  br label %32, !llvm.loop !11

52:                                               ; preds = %32
  %53 = load double, ptr %10, align 8
  %54 = load double, ptr %11, align 8
  %55 = fdiv double %53, %54
  store double %55, ptr %9, align 8
  %56 = load double, ptr %9, align 8
  %57 = fcmp oge double %56, 1.000000e+00
  br i1 %57, label %58, label %60

58:                                               ; preds = %52
  %59 = call double @nextafter(double noundef 1.000000e+00, double noundef 0.000000e+00) #3
  store double %59, ptr %9, align 8
  br label %60

60:                                               ; preds = %58, %52
  %61 = load double, ptr %9, align 8
  ret double %61
}

; Function Attrs: mustprogress uwtable
define noundef double @_Z6ML_Rndv() #5 {
  %1 = call noundef double @_ZSt18generate_canonicalIdLm24ESt26linear_congruential_engineImLm16807ELm0ELm2147483647EEET_RT1_(ptr noundef nonnull align 8 dereferenceable(8) @rndEngine)
  ret double %1
}

; Function Attrs: mustprogress uwtable
define noundef double @_Z10ML_RandIntd(double noundef %0) #5 {
  %2 = alloca double, align 8
  store double %0, ptr %2, align 8
  %3 = load double, ptr %2, align 8
  %4 = call noundef double @_Z6ML_Rndv()
  %5 = fmul double %3, %4
  %6 = call double @llvm.floor.f64(double %5)
  ret double %6
}