; Function Attrs: mustprogress nounwind uwtable
define noundef double @_Z10ML_RandIntd(double noundef %0) #4 {
  %2 = tail call noundef x86_fp80 @logl(x86_fp80 noundef 0xK401DFFFFFFFC00000000) #27
  %3 = tail call noundef x86_fp80 @logl(x86_fp80 noundef 0xK40008000000000000000) #27
  %4 = fdiv x86_fp80 %2, %3
  %5 = fptoui x86_fp80 %4 to i64
  %6 = add i64 %5, 23
  %7 = udiv i64 %6, %5
  %spec.select.i.i = tail call i64 @llvm.umax.i64(i64 %7, i64 1)
  %.promoted.i.i = load i64, ptr @rndEngine, align 8
  br label %select.unfold.i.i

select.unfold.i.i:                                ; preds = %select.unfold.i.i, %1
  %.023.i.i = phi i64 [ %spec.select.i.i, %1 ], [ %17, %select.unfold.i.i ]
  %.01422.i.i = phi double [ 1.000000e+00, %1 ], [ %16, %select.unfold.i.i ]
  %.01521.i.i = phi double [ 0.000000e+00, %1 ], [ %13, %select.unfold.i.i ]
  %8 = phi i64 [ %.promoted.i.i, %1 ], [ %10, %select.unfold.i.i ]
  %9 = mul i64 %8, 16807
  %10 = urem i64 %9, 2147483647
  %11 = add nsw i64 %10, -1
  %12 = uitofp i64 %11 to double
  %13 = tail call double @llvm.fmuladd.f64(double %12, double %.01422.i.i, double %.01521.i.i)
  %14 = fpext double %.01422.i.i to x86_fp80
  %15 = fmul x86_fp80 %14, 0xK401DFFFFFFFC00000000
  %16 = fptrunc x86_fp80 %15 to double
  %17 = add i64 %.023.i.i, -1
  %.not.i.i = icmp eq i64 %17, 0
  br i1 %.not.i.i, label %18, label %select.unfold.i.i, !llvm.loop !10

18:                                               ; preds = %select.unfold.i.i
  store i64 %10, ptr @rndEngine, align 8
  %19 = fdiv double %13, %16
  %20 = fcmp ult double %19, 1.000000e+00
  br i1 %20, label %_Z6ML_Rndv.exit, label %21

21:                                               ; preds = %18
  %22 = tail call double @nextafter(double noundef 1.000000e+00, double noundef 0.000000e+00) #27
  br label %_Z6ML_Rndv.exit

_Z6ML_Rndv.exit:                                  ; preds = %18, %21
  %.016.i.i = phi double [ %22, %21 ], [ %19, %18 ]
  %23 = fmul double %.016.i.i, %0
  %24 = tail call double @llvm.floor.f64(double %23)
  ret double %24
}